target datalayout = "e-m:e-p270:32:32-p271:32:32-p272:64:64-i64:64-i128:128-f80:128-n8:16:32:64-S128"
target triple = "x86_64-pc-linux-gnu"

%"class.std::_Function_base" = type { %"union.std::_Any_data", ptr }
%"union.std::_Any_data" = type { %"union.std::_Nocopy_types" }
%"union.std::_Nocopy_types" = type { { i64, i64 } }
%"class.std::function.85" = type { %"class.std::_Function_base", ptr }
%class.anon.669 = type { ptr }

@__dso_handle = external hidden global i8
@_ZZN27cmCMakePresetsGraphInternal23PresetOptionalIntHelperERSt8optionalIiEPKN4Json5ValueEP11cmJSONStateE6helper = internal global %"class.std::function.85" zeroinitializer, align 8
@_ZGVZN27cmCMakePresetsGraphInternal23PresetOptionalIntHelperERSt8optionalIiEPKN4Json5ValueEP11cmJSONStateE6helper = internal global i64 0, align 8

; Function Attrs: mustprogress nounwind uwtable
define linkonce_odr dso_local noundef ptr @_ZNSt9_Any_data9_M_accessEv(ptr noundef nonnull align 8 dereferenceable(16) %0) #5 comdat align 2 {
  %2 = alloca ptr, align 8
  store ptr %0, ptr %2, align 8
  %3 = load ptr, ptr %2, align 8
  %4 = getelementptr inbounds [16 x i8], ptr %3, i64 0, i64 0
  ret ptr %4
}

; Function Attrs: noreturn nounwind uwtable
define linkonce_odr hidden void @__clang_call_terminate(ptr noundef %0) #9 comdat {
  %2 = call ptr @__cxa_begin_catch(ptr %0) #3
  call void @_ZSt9terminatev() #17
  unreachable
}

; Function Attrs: mustprogress nounwind uwtable
define linkonce_odr dso_local void @_ZNSt14_Function_base13_Base_managerIZN19cmJSONHelperBuilder8OptionalIiPFbRiPKN4Json5ValueEP11cmJSONStateEEESt8functionIFbRSt8optionalIT_ES7_S9_EET0_EUlRSD_IiES7_S9_E_E9_M_createISM_EEvRSt9_Any_dataOSE_St17integral_constantIbLb1EE(ptr noundef nonnull align 8 dereferenceable(16) %0, ptr noundef nonnull align 8 dereferenceable(8) %1) #5 comdat align 2 {
  %3 = alloca ptr, align 8
  %4 = alloca ptr, align 8
  store ptr %0, ptr %3, align 8
  store ptr %1, ptr %4, align 8
  %5 = load ptr, ptr %3, align 8
  %6 = call noundef ptr @_ZNSt9_Any_data9_M_accessEv(ptr noundef nonnull align 8 dereferenceable(16) %5) #3
  %7 = load ptr, ptr %4, align 8
  call void @llvm.memcpy.p0.p0.i64(ptr align 8 %6, ptr align 8 %7, i64 8, i1 false)
  ret void
}

; Function Attrs: mustprogress nounwind uwtable
define linkonce_odr dso_local void @_ZNSt14_Function_base13_Base_managerIZN19cmJSONHelperBuilder8OptionalIiPFbRiPKN4Json5ValueEP11cmJSONStateEEESt8functionIFbRSt8optionalIT_ES7_S9_EET0_EUlRSD_IiES7_S9_E_E15_M_init_functorISM_EEvRSt9_Any_dataOSE_(ptr noundef nonnull align 8 dereferenceable(16) %0, ptr noundef nonnull align 8 dereferenceable(8) %1) #5 comdat align 2 personality ptr @__gxx_personality_v0 {
  %3 = alloca ptr, align 8
  %4 = alloca ptr, align 8
  store ptr %0, ptr %3, align 8
  store ptr %1, ptr %4, align 8
  %5 = load ptr, ptr %3, align 8
  %6 = load ptr, ptr %4, align 8
  invoke void @_ZNSt14_Function_base13_Base_managerIZN19cmJSONHelperBuilder8OptionalIiPFbRiPKN4Json5ValueEP11cmJSONStateEEESt8functionIFbRSt8optionalIT_ES7_S9_EET0_EUlRSD_IiES7_S9_E_E9_M_createISM_EEvRSt9_Any_dataOSE_St17integral_constantIbLb1EE(ptr noundef nonnull align 8 dereferenceable(16) %5, ptr noundef nonnull align 8 dereferenceable(8) %6)
          to label %7 unwind label %8

7:                                                ; preds = %2
  ret void

8:                                                ; preds = %2
  %9 = landingpad { ptr, i32 }
          catch ptr null
  %10 = extractvalue { ptr, i32 } %9, 0
  call void @__clang_call_terminate(ptr %10) #17
  unreachable
}

; Function Attrs: mustprogress nounwind uwtable
define linkonce_odr dso_local noundef zeroext i1 @_ZNSt14_Function_base13_Base_managerIZN19cmJSONHelperBuilder8OptionalIiPFbRiPKN4Json5ValueEP11cmJSONStateEEESt8functionIFbRSt8optionalIT_ES7_S9_EET0_EUlRSD_IiES7_S9_E_E21_M_not_empty_functionISM_EEbRKSE_(ptr noundef nonnull align 8 dereferenceable(8) %0) #5 comdat align 2 {
  %2 = alloca ptr, align 8
  store ptr %0, ptr %2, align 8
  ret i1 true
}

; Function Attrs: mustprogress nounwind uwtable
define linkonce_odr dso_local void @_ZNSt14_Function_baseC2Ev(ptr noundef nonnull align 8 dereferenceable(24) %0) unnamed_addr #5 comdat align 2 {
  %2 = alloca ptr, align 8
  store ptr %0, ptr %2, align 8
  %3 = load ptr, ptr %2, align 8
  %4 = getelementptr inbounds %"class.std::_Function_base", ptr %3, i32 0, i32 0
  store ptr null, ptr %4, align 8
  %5 = getelementptr inbounds %"class.std::_Function_base", ptr %3, i32 0, i32 1
  store ptr null, ptr %5, align 8
  ret void
}

; Function Attrs: mustprogress nounwind uwtable
define linkonce_odr dso_local noundef zeroext i1 @_ZNKSt14_Function_base8_M_emptyEv(ptr noundef nonnull align 8 dereferenceable(24) %0) #5 comdat align 2 {
  %2 = alloca ptr, align 8
  store ptr %0, ptr %2, align 8
  %3 = load ptr, ptr %2, align 8
  %4 = getelementptr inbounds %"class.std::_Function_base", ptr %3, i32 0, i32 1
  %5 = load ptr, ptr %4, align 8
  %6 = icmp ne ptr %5, null
  %7 = xor i1 %6, true
  ret i1 %7
}

; Function Attrs: mustprogress nounwind uwtable
define linkonce_odr dso_local void @_ZNSt8functionIFbRSt8optionalIiEPKN4Json5ValueEP11cmJSONStateEEC2IZN19cmJSONHelperBuilder8OptionalIiPFbRiS6_S8_EEES_IFbRS0_IT_ES6_S8_EET0_EUlS2_S6_S8_E_vEEOSH_(ptr noundef nonnull align 8 dereferenceable(32) %0, ptr noundef nonnull align 8 dereferenceable(8) %1) unnamed_addr #5 comdat align 2 {
  %3 = alloca ptr, align 8
  %4 = alloca ptr, align 8
  store ptr %0, ptr %3, align 8
  store ptr %1, ptr %4, align 8
  %5 = load ptr, ptr %3, align 8
  %6 = getelementptr inbounds i8, ptr %5, i64 0
  call void @llvm.memset.p0.i64(ptr align 8 %6, i8 0, i64 24, i1 false)
  call void @_ZNSt14_Function_baseC2Ev(ptr noundef nonnull align 8 dereferenceable(24) %5) #3
  %7 = getelementptr inbounds %"class.std::function.85", ptr %5, i32 0, i32 1
  store ptr null, ptr %7, align 8
  %8 = load ptr, ptr %4, align 8
  %9 = call noundef zeroext i1 @_ZNSt14_Function_base13_Base_managerIZN19cmJSONHelperBuilder8OptionalIiPFbRiPKN4Json5ValueEP11cmJSONStateEEESt8functionIFbRSt8optionalIT_ES7_S9_EET0_EUlRSD_IiES7_S9_E_E21_M_not_empty_functionISM_EEbRKSE_(ptr noundef nonnull align 8 dereferenceable(8) %8) #3
  br i1 %9, label %10, label %15

10:                                               ; preds = %2
  %11 = getelementptr inbounds %"class.std::_Function_base", ptr %5, i32 0, i32 0
  %12 = load ptr, ptr %4, align 8
  call void @_ZNSt14_Function_base13_Base_managerIZN19cmJSONHelperBuilder8OptionalIiPFbRiPKN4Json5ValueEP11cmJSONStateEEESt8functionIFbRSt8optionalIT_ES7_S9_EET0_EUlRSD_IiES7_S9_E_E15_M_init_functorISM_EEvRSt9_Any_dataOSE_(ptr noundef nonnull align 8 dereferenceable(16) %11, ptr noundef nonnull align 8 dereferenceable(8) %12) #3
  %13 = getelementptr inbounds %"class.std::function.85", ptr %5, i32 0, i32 1
  store ptr @_ZNSt17_Function_handlerIFbRSt8optionalIiEPKN4Json5ValueEP11cmJSONStateEZN19cmJSONHelperBuilder8OptionalIiPFbRiS6_S8_EEESt8functionIFbRS0_IT_ES6_S8_EET0_EUlS2_S6_S8_E_E9_M_invokeERKSt9_Any_dataS2_OS6_OS8_, ptr %13, align 8
  %14 = getelementptr inbounds %"class.std::_Function_base", ptr %5, i32 0, i32 1
  store ptr @_ZNSt17_Function_handlerIFbRSt8optionalIiEPKN4Json5ValueEP11cmJSONStateEZN19cmJSONHelperBuilder8OptionalIiPFbRiS6_S8_EEESt8functionIFbRS0_IT_ES6_S8_EET0_EUlS2_S6_S8_E_E10_M_managerERSt9_Any_dataRKSO_St18_Manager_operation, ptr %14, align 8
  br label %15

15:                                               ; preds = %10, %2
  ret void
}

; Function Attrs: mustprogress uwtable
define linkonce_odr dso_local noundef zeroext i1 @_ZNKSt8functionIFbRSt8optionalIiEPKN4Json5ValueEP11cmJSONStateEEclES2_S6_S8_(ptr noundef nonnull align 8 dereferenceable(32) %0, ptr noundef nonnull align 4 dereferenceable(8) %1, ptr noundef %2, ptr noundef %3) #4 comdat align 2 {
  %5 = alloca ptr, align 8
  %6 = alloca ptr, align 8
  %7 = alloca ptr, align 8
  %8 = alloca ptr, align 8
  store ptr %0, ptr %5, align 8
  store ptr %1, ptr %6, align 8
  store ptr %2, ptr %7, align 8
  store ptr %3, ptr %8, align 8
  %9 = load ptr, ptr %5, align 8
  %10 = call noundef zeroext i1 @_ZNKSt14_Function_base8_M_emptyEv(ptr noundef nonnull align 8 dereferenceable(24) %9)
  br i1 %10, label %11, label %12

11:                                               ; preds = %4
  call void @_ZSt25__throw_bad_function_callv() #14
  unreachable

12:                                               ; preds = %4
  %13 = getelementptr inbounds %"class.std::function.85", ptr %9, i32 0, i32 1
  %14 = load ptr, ptr %13, align 8
  %15 = getelementptr inbounds %"class.std::_Function_base", ptr %9, i32 0, i32 0
  %16 = load ptr, ptr %6, align 8
  %17 = call noundef zeroext i1 %14(ptr noundef nonnull align 8 dereferenceable(16) %15, ptr noundef nonnull align 4 dereferenceable(8) %16, ptr noundef nonnull align 8 dereferenceable(8) %7, ptr noundef nonnull align 8 dereferenceable(8) %8)
  ret i1 %17
}

; Function Attrs: mustprogress nounwind uwtable
define linkonce_odr dso_local void @_ZN19cmJSONHelperBuilder8OptionalIiPFbRiPKN4Json5ValueEP11cmJSONStateEEESt8functionIFbRSt8optionalIT_ES5_S7_EET0_(ptr dead_on_unwind noalias writable sret(%"class.std::function.85") align 8 %0, ptr noundef %1) #5 comdat align 2 {
  %3 = alloca ptr, align 8
  %4 = alloca ptr, align 8
  %5 = alloca %class.anon.669, align 8
  store ptr %0, ptr %3, align 8
  store ptr %1, ptr %4, align 8
  %6 = getelementptr inbounds %class.anon.669, ptr %5, i32 0, i32 0
  %7 = load ptr, ptr %4, align 8
  store ptr %7, ptr %6, align 8
  call void @_ZNSt8functionIFbRSt8optionalIiEPKN4Json5ValueEP11cmJSONStateEEC2IZN19cmJSONHelperBuilder8OptionalIiPFbRiS6_S8_EEES_IFbRS0_IT_ES6_S8_EET0_EUlS2_S6_S8_E_vEEOSH_(ptr noundef nonnull align 8 dereferenceable(32) %0, ptr noundef nonnull align 8 dereferenceable(8) %5) #3
  ret void
}

; Function Attrs: mustprogress uwtable
define dso_local noundef zeroext i1 @_ZN27cmCMakePresetsGraphInternal23PresetOptionalIntHelperERSt8optionalIiEPKN4Json5ValueEP11cmJSONState(ptr noundef nonnull align 4 dereferenceable(8) %0, ptr noundef %1, ptr noundef %2) #4 personality ptr @__gxx_personality_v0 {
  %4 = alloca ptr, align 8
  %5 = alloca ptr, align 8
  %6 = alloca ptr, align 8
  %7 = alloca ptr, align 8
  %8 = alloca i32, align 4
  store ptr %0, ptr %4, align 8
  store ptr %1, ptr %5, align 8
  store ptr %2, ptr %6, align 8
  %9 = load atomic i8, ptr @_ZGVZN27cmCMakePresetsGraphInternal23PresetOptionalIntHelperERSt8optionalIiEPKN4Json5ValueEP11cmJSONStateE6helper acquire, align 8
  %10 = icmp eq i8 %9, 0
  br i1 %10, label %11, label %17, !prof !5

11:                                               ; preds = %3
  %12 = call i32 @__cxa_guard_acquire(ptr @_ZGVZN27cmCMakePresetsGraphInternal23PresetOptionalIntHelperERSt8optionalIiEPKN4Json5ValueEP11cmJSONStateE6helper) #3
  %13 = icmp ne i32 %12, 0
  br i1 %13, label %14, label %17

14:                                               ; preds = %11
  invoke void @_ZN19cmJSONHelperBuilder8OptionalIiPFbRiPKN4Json5ValueEP11cmJSONStateEEESt8functionIFbRSt8optionalIT_ES5_S7_EET0_(ptr dead_on_unwind writable sret(%"class.std::function.85") align 8 @_ZZN27cmCMakePresetsGraphInternal23PresetOptionalIntHelperERSt8optionalIiEPKN4Json5ValueEP11cmJSONStateE6helper, ptr noundef @_ZN27cmCMakePresetsGraphInternal15PresetIntHelperERiPKN4Json5ValueEP11cmJSONState)
          to label %15 unwind label %22

15:                                               ; preds = %14
  %16 = call i32 @__cxa_atexit(ptr @_ZNSt8functionIFbRSt8optionalIiEPKN4Json5ValueEP11cmJSONStateEED2Ev, ptr @_ZZN27cmCMakePresetsGraphInternal23PresetOptionalIntHelperERSt8optionalIiEPKN4Json5ValueEP11cmJSONStateE6helper, ptr @__dso_handle) #3
  call void @__cxa_guard_release(ptr @_ZGVZN27cmCMakePresetsGraphInternal23PresetOptionalIntHelperERSt8optionalIiEPKN4Json5ValueEP11cmJSONStateE6helper) #3
  br label %17

17:                                               ; preds = %15, %11, %3
  %18 = load ptr, ptr %4, align 8
  %19 = load ptr, ptr %5, align 8
  %20 = load ptr, ptr %6, align 8
  %21 = call noundef zeroext i1 @_ZNKSt8functionIFbRSt8optionalIiEPKN4Json5ValueEP11cmJSONStateEEclES2_S6_S8_(ptr noundef nonnull align 8 dereferenceable(32) @_ZZN27cmCMakePresetsGraphInternal23PresetOptionalIntHelperERSt8optionalIiEPKN4Json5ValueEP11cmJSONStateE6helper, ptr noundef nonnull align 4 dereferenceable(8) %18, ptr noundef %19, ptr noundef %20)
  ret i1 %21

22:                                               ; preds = %14
  %23 = landingpad { ptr, i32 }
          cleanup
  %24 = extractvalue { ptr, i32 } %23, 0
  store ptr %24, ptr %7, align 8
  %25 = extractvalue { ptr, i32 } %23, 1
  store i32 %25, ptr %8, align 4
  call void @__cxa_guard_abort(ptr @_ZGVZN27cmCMakePresetsGraphInternal23PresetOptionalIntHelperERSt8optionalIiEPKN4Json5ValueEP11cmJSONStateE6helper) #3
  br label %26

26:                                               ; preds = %22
  %27 = load ptr, ptr %7, align 8
  %28 = load i32, ptr %8, align 4
  %29 = insertvalue { ptr, i32 } poison, ptr %27, 0
  %30 = insertvalue { ptr, i32 } %29, i32 %28, 1
  resume { ptr, i32 } %30
}